target datalayout = "e-m:e-p270:32:32-p271:32:32-p272:64:64-i64:64-i128:128-f80:128-n8:16:32:64-S128"
target triple = "x86_64-unknown-linux-gnu"

%struct.Type = type { i32, i32, i32, i8, i8, ptr, ptr, ptr, ptr, i32, ptr, ptr, ptr, i8, i8, ptr, ptr, i8, ptr }

; Function Attrs: nounwind uwtable
define internal ptr @new_type(i32 noundef %kind, i32 noundef %size, i32 noundef %align) #0 {
entry:
  %kind.addr = alloca i32, align 4
  %size.addr = alloca i32, align 4
  %align.addr = alloca i32, align 4
  %ty = alloca ptr, align 8
  store i32 %kind, ptr %kind.addr, align 4
  store i32 %size, ptr %size.addr, align 4
  store i32 %align, ptr %align.addr, align 4
  %call = call noalias ptr @calloc(i64 noundef 1, i64 noundef 120) #5
  store ptr %call, ptr %ty, align 8
  %0 = load i32, ptr %kind.addr, align 4
  %1 = load ptr, ptr %ty, align 8
  %kind1 = getelementptr inbounds %struct.Type, ptr %1, i32 0, i32 0
  store i32 %0, ptr %kind1, align 8
  %2 = load i32, ptr %size.addr, align 4
  %3 = load ptr, ptr %ty, align 8
  %size2 = getelementptr inbounds %struct.Type, ptr %3, i32 0, i32 1
  store i32 %2, ptr %size2, align 4
  %4 = load i32, ptr %align.addr, align 4
  %5 = load ptr, ptr %ty, align 8
  %align3 = getelementptr inbounds %struct.Type, ptr %5, i32 0, i32 2
  store i32 %4, ptr %align3, align 8
  %6 = load ptr, ptr %ty, align 8
  ret ptr %6
}

; Function Attrs: nounwind uwtable
define dso_local ptr @vla_of(ptr noundef %base, ptr noundef %len) #0 {
entry:
  %base.addr = alloca ptr, align 8
  %len.addr = alloca ptr, align 8
  %ty = alloca ptr, align 8
  store ptr %base, ptr %base.addr, align 8
  store ptr %len, ptr %len.addr, align 8
  %call = call ptr @new_type(i32 noundef 13, i32 noundef 8, i32 noundef 8)
  store ptr %call, ptr %ty, align 8
  %0 = load ptr, ptr %base.addr, align 8
  %1 = load ptr, ptr %ty, align 8
  %base1 = getelementptr inbounds %struct.Type, ptr %1, i32 0, i32 6
  store ptr %0, ptr %base1, align 8
  %2 = load ptr, ptr %len.addr, align 8
  %3 = load ptr, ptr %ty, align 8
  %vla_len = getelementptr inbounds %struct.Type, ptr %3, i32 0, i32 10
  store ptr %2, ptr %vla_len, align 8
  %4 = load ptr, ptr %ty, align 8
  ret ptr %4
}